target datalayout = "e-m:e-p270:32:32-p271:32:32-p272:64:64-i64:64-i128:128-f80:128-n8:16:32:64-S128"
target triple = "x86_64-pc-linux-gnu"

%struct.strbuf = type { i64, i64, ptr }
%struct.wt_status = type { ptr, i32, ptr, ptr, %struct.pathspec, i32, i32, i32, i32, i32, i32, i32, i32, i32, i32, i32, ptr, [9 x [75 x i8]], i32, i32, i32, i32, i32, i32, i32, i32, i32, i32, i32, i8, %struct.wt_status_state, %struct.object_id, i32, i32, ptr, ptr, ptr, %struct.string_list, %struct.string_list, %struct.string_list, i32 }
%struct.pathspec = type { i32, i8, i32, i32, ptr }
%struct.wt_status_state = type { i32, i32, i32, i32, i32, i32, i32, i32, i32, i32, ptr, ptr, ptr, ptr, %struct.object_id, %struct.object_id, %struct.object_id }
%struct.object_id = type { [32 x i8], i32 }
%struct.string_list = type { ptr, i64, i64, i8, ptr }

@comment_line_str = external global ptr, align 8
@cut_line = internal constant [54 x i8] c"------------------------ >8 ------------------------\0A\00", align 16
@.str.9 = private unnamed_addr constant [77 x i8] c"Do not modify or remove the line above.\0AEverything below it will be ignored.\00", align 1
@.str.10 = private unnamed_addr constant [3 x i8] c"%s\00", align 1
@__const.wt_status_add_cut_line.buf = private unnamed_addr constant %struct.strbuf { i64 0, i64 0, ptr @strbuf_slopbuf }, align 8
@.str.29 = private unnamed_addr constant [1 x i8] zeroinitializer, align 1
@git_gettext_enabled = external global i32, align 4

; Function Attrs: inlinehint nounwind uwtable
define internal ptr @_(ptr noundef %0) #8 {
  %2 = alloca ptr, align 8
  %3 = alloca ptr, align 8
  store ptr %0, ptr %3, align 8, !tbaa !9
  %4 = load ptr, ptr %3, align 8, !tbaa !9
  %5 = load i8, ptr %4, align 1, !tbaa !30
  %6 = icmp ne i8 %5, 0
  br i1 %6, label %8, label %7

7:                                                ; preds = %1
  store ptr @.str.29, ptr %2, align 8
  br label %16

8:                                                ; preds = %1
  %9 = load i32, ptr @git_gettext_enabled, align 4, !tbaa !11
  %10 = icmp ne i32 %9, 0
  br i1 %10, label %13, label %11

11:                                               ; preds = %8
  %12 = load ptr, ptr %3, align 8, !tbaa !9
  store ptr %12, ptr %2, align 8
  br label %16

13:                                               ; preds = %8
  %14 = load ptr, ptr %3, align 8, !tbaa !9
  %15 = call ptr @dcgettext(ptr noundef null, ptr noundef %14, i32 noundef 5) #12
  store ptr %15, ptr %2, align 8
  br label %16

16:                                               ; preds = %13, %11, %7
  %17 = load ptr, ptr %2, align 8
  ret ptr %17
}

; Function Attrs: nounwind uwtable
define dso_local void @wt_status_append_cut_line(ptr noundef %0) #0 {
  %2 = alloca ptr, align 8
  %3 = alloca ptr, align 8
  store ptr %0, ptr %2, align 8, !tbaa !186
  call void @llvm.lifetime.start.p0(i64 8, ptr %3) #12
  %4 = call ptr @_(ptr noundef @.str.9)
  store ptr %4, ptr %3, align 8, !tbaa !9
  %5 = load ptr, ptr %2, align 8, !tbaa !186
  %6 = load ptr, ptr @comment_line_str, align 8, !tbaa !9
  call void (ptr, ptr, ptr, ...) @strbuf_commented_addf(ptr noundef %5, ptr noundef %6, ptr noundef @.str.10, ptr noundef @cut_line)
  %7 = load ptr, ptr %2, align 8, !tbaa !186
  %8 = load ptr, ptr %3, align 8, !tbaa !9
  %9 = load ptr, ptr %3, align 8, !tbaa !9
  %10 = call i64 @strlen(ptr noundef %9) #13
  %11 = load ptr, ptr @comment_line_str, align 8, !tbaa !9
  call void @strbuf_add_commented_lines(ptr noundef %7, ptr noundef %8, i64 noundef %10, ptr noundef %11)
  call void @llvm.lifetime.end.p0(i64 8, ptr %3) #12
  ret void
}

; Function Attrs: nounwind uwtable
define dso_local void @wt_status_add_cut_line(ptr noundef %0) #0 {
  %2 = alloca ptr, align 8
  %3 = alloca %struct.strbuf, align 8
  %4 = alloca i32, align 4
  store ptr %0, ptr %2, align 8, !tbaa !4
  call void @llvm.lifetime.start.p0(i64 24, ptr %3) #12
  call void @llvm.memcpy.p0.p0.i64(ptr align 8 %3, ptr align 8 @__const.wt_status_add_cut_line.buf, i64 24, i1 false)
  %5 = load ptr, ptr %2, align 8, !tbaa !4
  %6 = getelementptr inbounds nuw %struct.wt_status, ptr %5, i32 0, i32 29
  %7 = load i8, ptr %6, align 8, !tbaa !188
  %8 = icmp ne i8 %7, 0
  br i1 %8, label %9, label %10

9:                                                ; preds = %1
  store i32 1, ptr %4, align 4
  br label %19

10:                                               ; preds = %1
  %11 = load ptr, ptr %2, align 8, !tbaa !4
  %12 = getelementptr inbounds nuw %struct.wt_status, ptr %11, i32 0, i32 29
  store i8 1, ptr %12, align 8, !tbaa !188
  call void @wt_status_append_cut_line(ptr noundef %3)
  %13 = getelementptr inbounds nuw %struct.strbuf, ptr %3, i32 0, i32 2
  %14 = load ptr, ptr %13, align 8, !tbaa !29
  %15 = load ptr, ptr %2, align 8, !tbaa !4
  %16 = getelementptr inbounds nuw %struct.wt_status, ptr %15, i32 0, i32 35
  %17 = load ptr, ptr %16, align 8, !tbaa !28
  %18 = call i32 @fputs(ptr noundef %14, ptr noundef %17)
  call void @strbuf_release(ptr noundef %3)
  store i32 0, ptr %4, align 4
  br label %19

19:                                               ; preds = %10, %9
  call void @llvm.lifetime.end.p0(i64 24, ptr %3) #12
  %20 = load i32, ptr %4, align 4
  switch i32 %20, label %22 [
    i32 0, label %21
    i32 1, label %21
  ]

21:                                               ; preds = %19, %19
  ret void

22:                                               ; preds = %19
  unreachable
}