; Function Attrs: nounwind uwtable
define dso_local void @wt_status_add_cut_line(ptr noundef captures(none) %0) local_unnamed_addr #0 {
  %2 = alloca %struct.strbuf, align 8
  call void @llvm.lifetime.start.p0(i64 24, ptr nonnull %2) #20
  call void @llvm.memcpy.p0.p0.i64(ptr noundef nonnull align 8 dereferenceable(24) %2, ptr noundef nonnull align 8 dereferenceable(24) @__const.wt_longstatus_print_other.buf, i64 24, i1 false)
  %3 = getelementptr inbounds nuw i8, ptr %0, i64 832
  %4 = load i8, ptr %3, align 8, !tbaa !184
  %.not = icmp eq i8 %4, 0
  br i1 %.not, label %5, label %17

5:                                                ; preds = %1
  store i8 1, ptr %3, align 8, !tbaa !184
  %6 = load i32, ptr @git_gettext_enabled, align 4, !tbaa !128
  %.not4.i.i = icmp eq i32 %6, 0
  br i1 %.not4.i.i, label %wt_status_append_cut_line.exit, label %7

7:                                                ; preds = %5
  %8 = tail call ptr @dcgettext(ptr noundef null, ptr noundef nonnull @.str.9, i32 noundef 5) #20
  br label %wt_status_append_cut_line.exit

wt_status_append_cut_line.exit:                   ; preds = %5, %7
  %.0.i.i = phi ptr [ %8, %7 ], [ @.str.9, %5 ]
  %9 = load ptr, ptr @comment_line_str, align 8, !tbaa !22
  call void (ptr, ptr, ptr, ...) @strbuf_commented_addf(ptr noundef nonnull %2, ptr noundef %9, ptr noundef nonnull @.str.10, ptr noundef nonnull @cut_line) #20
  %10 = call i64 @strlen(ptr noundef nonnull dereferenceable(1) %.0.i.i) #21
  %11 = load ptr, ptr @comment_line_str, align 8, !tbaa !22
  call void @strbuf_add_commented_lines(ptr noundef nonnull %2, ptr noundef nonnull %.0.i.i, i64 noundef %10, ptr noundef %11) #20
  %12 = getelementptr inbounds nuw i8, ptr %2, i64 16
  %13 = load ptr, ptr %12, align 8, !tbaa !25
  %14 = getelementptr inbounds nuw i8, ptr %0, i64 1080
  %15 = load ptr, ptr %14, align 8, !tbaa !23
  %16 = call i32 @fputs(ptr noundef %13, ptr noundef %15)
  call void @strbuf_release(ptr noundef nonnull %2) #20
  br label %17

17:                                               ; preds = %1, %wt_status_append_cut_line.exit
  call void @llvm.lifetime.end.p0(i64 24, ptr nonnull %2) #20
  ret void
}